target datalayout = "e-m:e-p270:32:32-p271:32:32-p272:64:64-i64:64-i128:128-f80:128-n8:16:32:64-S128"
target triple = "x86_64-pc-linux-gnu"

@subpel_filters = internal constant [7 x [6 x i8]] [[6 x i8] c"\00\06{\0C\01\00", [6 x i8] c"\02\0Bl$\08\01", [6 x i8] c"\00\09]2\06\00", [6 x i8] c"\03\10MM\10\03", [6 x i8] c"\00\062]\09\00", [6 x i8] c"\01\08$l\0B\02", [6 x i8] c"\00\01\0C{\06\00"], align 16
@ff_crop_tab = external hidden constant [2304 x i8], align 16

; Function Attrs: nounwind uwtable
define internal void @put_vp8_epel4_h4_c(ptr noundef %0, i64 noundef %1, ptr noundef %2, i64 noundef %3, i32 noundef %4, i32 noundef %5, i32 noundef %6) #1 {
  %8 = alloca ptr, align 8
  %9 = alloca i64, align 8
  %10 = alloca ptr, align 8
  %11 = alloca i64, align 8
  %12 = alloca i32, align 4
  %13 = alloca i32, align 4
  %14 = alloca i32, align 4
  %15 = alloca ptr, align 8
  %16 = alloca ptr, align 8
  %17 = alloca i32, align 4
  %18 = alloca i32, align 4
  store ptr %0, ptr %8, align 8, !tbaa !10
  store i64 %1, ptr %9, align 8, !tbaa !12
  store ptr %2, ptr %10, align 8, !tbaa !10
  store i64 %3, ptr %11, align 8, !tbaa !12
  store i32 %4, ptr %12, align 4, !tbaa !14
  store i32 %5, ptr %13, align 4, !tbaa !14
  store i32 %6, ptr %14, align 4, !tbaa !14
  call void @llvm.lifetime.start.p0(i64 8, ptr %15) #6
  %19 = load i32, ptr %13, align 4, !tbaa !14
  %20 = sub nsw i32 %19, 1
  %21 = sext i32 %20 to i64
  %22 = getelementptr inbounds [7 x [6 x i8]], ptr @subpel_filters, i64 0, i64 %21
  %23 = getelementptr inbounds [6 x i8], ptr %22, i64 0, i64 0
  store ptr %23, ptr %15, align 8, !tbaa !10
  call void @llvm.lifetime.start.p0(i64 8, ptr %16) #6
  store ptr getelementptr inbounds (i8, ptr @ff_crop_tab, i64 1024), ptr %16, align 8, !tbaa !10
  call void @llvm.lifetime.start.p0(i64 4, ptr %17) #6
  call void @llvm.lifetime.start.p0(i64 4, ptr %18) #6
  store i32 0, ptr %18, align 4, !tbaa !14
  br label %24

24:                                               ; preds = %104, %7
  %25 = load i32, ptr %18, align 4, !tbaa !14
  %26 = load i32, ptr %12, align 4, !tbaa !14
  %27 = icmp slt i32 %25, %26
  br i1 %27, label %28, label %107

28:                                               ; preds = %24
  store i32 0, ptr %17, align 4, !tbaa !14
  br label %29

29:                                               ; preds = %94, %28
  %30 = load i32, ptr %17, align 4, !tbaa !14
  %31 = icmp slt i32 %30, 4
  br i1 %31, label %32, label %97

32:                                               ; preds = %29
  %33 = load ptr, ptr %16, align 8, !tbaa !10
  %34 = load ptr, ptr %15, align 8, !tbaa !10
  %35 = getelementptr inbounds i8, ptr %34, i64 2
  %36 = load i8, ptr %35, align 1, !tbaa !18
  %37 = zext i8 %36 to i32
  %38 = load ptr, ptr %10, align 8, !tbaa !10
  %39 = load i32, ptr %17, align 4, !tbaa !14
  %40 = add nsw i32 %39, 0
  %41 = sext i32 %40 to i64
  %42 = getelementptr inbounds i8, ptr %38, i64 %41
  %43 = load i8, ptr %42, align 1, !tbaa !18
  %44 = zext i8 %43 to i32
  %45 = mul nsw i32 %37, %44
  %46 = load ptr, ptr %15, align 8, !tbaa !10
  %47 = getelementptr inbounds i8, ptr %46, i64 1
  %48 = load i8, ptr %47, align 1, !tbaa !18
  %49 = zext i8 %48 to i32
  %50 = load ptr, ptr %10, align 8, !tbaa !10
  %51 = load i32, ptr %17, align 4, !tbaa !14
  %52 = sub nsw i32 %51, 1
  %53 = sext i32 %52 to i64
  %54 = getelementptr inbounds i8, ptr %50, i64 %53
  %55 = load i8, ptr %54, align 1, !tbaa !18
  %56 = zext i8 %55 to i32
  %57 = mul nsw i32 %49, %56
  %58 = sub nsw i32 %45, %57
  %59 = load ptr, ptr %15, align 8, !tbaa !10
  %60 = getelementptr inbounds i8, ptr %59, i64 3
  %61 = load i8, ptr %60, align 1, !tbaa !18
  %62 = zext i8 %61 to i32
  %63 = load ptr, ptr %10, align 8, !tbaa !10
  %64 = load i32, ptr %17, align 4, !tbaa !14
  %65 = add nsw i32 %64, 1
  %66 = sext i32 %65 to i64
  %67 = getelementptr inbounds i8, ptr %63, i64 %66
  %68 = load i8, ptr %67, align 1, !tbaa !18
  %69 = zext i8 %68 to i32
  %70 = mul nsw i32 %62, %69
  %71 = add nsw i32 %58, %70
  %72 = load ptr, ptr %15, align 8, !tbaa !10
  %73 = getelementptr inbounds i8, ptr %72, i64 4
  %74 = load i8, ptr %73, align 1, !tbaa !18
  %75 = zext i8 %74 to i32
  %76 = load ptr, ptr %10, align 8, !tbaa !10
  %77 = load i32, ptr %17, align 4, !tbaa !14
  %78 = add nsw i32 %77, 2
  %79 = sext i32 %78 to i64
  %80 = getelementptr inbounds i8, ptr %76, i64 %79
  %81 = load i8, ptr %80, align 1, !tbaa !18
  %82 = zext i8 %81 to i32
  %83 = mul nsw i32 %75, %82
  %84 = sub nsw i32 %71, %83
  %85 = add nsw i32 %84, 64
  %86 = ashr i32 %85, 7
  %87 = sext i32 %86 to i64
  %88 = getelementptr inbounds i8, ptr %33, i64 %87
  %89 = load i8, ptr %88, align 1, !tbaa !18
  %90 = load ptr, ptr %8, align 8, !tbaa !10
  %91 = load i32, ptr %17, align 4, !tbaa !14
  %92 = sext i32 %91 to i64
  %93 = getelementptr inbounds i8, ptr %90, i64 %92
  store i8 %89, ptr %93, align 1, !tbaa !18
  br label %94

94:                                               ; preds = %32
  %95 = load i32, ptr %17, align 4, !tbaa !14
  %96 = add nsw i32 %95, 1
  store i32 %96, ptr %17, align 4, !tbaa !14
  br label %29, !llvm.loop !69

97:                                               ; preds = %29
  %98 = load i64, ptr %9, align 8, !tbaa !12
  %99 = load ptr, ptr %8, align 8, !tbaa !10
  %100 = getelementptr inbounds i8, ptr %99, i64 %98
  store ptr %100, ptr %8, align 8, !tbaa !10
  %101 = load i64, ptr %11, align 8, !tbaa !12
  %102 = load ptr, ptr %10, align 8, !tbaa !10
  %103 = getelementptr inbounds i8, ptr %102, i64 %101
  store ptr %103, ptr %10, align 8, !tbaa !10
  br label %104

104:                                              ; preds = %97
  %105 = load i32, ptr %18, align 4, !tbaa !14
  %106 = add nsw i32 %105, 1
  store i32 %106, ptr %18, align 4, !tbaa !14
  br label %24, !llvm.loop !70

107:                                              ; preds = %24
  call void @llvm.lifetime.end.p0(i64 4, ptr %18) #6
  call void @llvm.lifetime.end.p0(i64 4, ptr %17) #6
  call void @llvm.lifetime.end.p0(i64 8, ptr %16) #6
  call void @llvm.lifetime.end.p0(i64 8, ptr %15) #6
  ret void
}